target datalayout = "e-m:e-p270:32:32-p271:32:32-p272:64:64-i64:64-i128:128-f80:128-n8:16:32:64-S128"
target triple = "x86_64-pc-linux-gnu"

%struct.USerializedSet = type { ptr, i32, i32, [8 x i16] }

; Function Attrs: mustprogress nounwind uwtable
define signext i8 @uset_getSerializedRange_77(ptr noundef %0, i32 noundef %1, ptr noundef %2, ptr noundef %3) #3 {
  %5 = alloca i8, align 1
  %6 = alloca ptr, align 8
  %7 = alloca i32, align 4
  %8 = alloca ptr, align 8
  %9 = alloca ptr, align 8
  %10 = alloca ptr, align 8
  %11 = alloca i32, align 4
  %12 = alloca i32, align 4
  %13 = alloca i32, align 4
  store ptr %0, ptr %6, align 8, !tbaa !49
  store i32 %1, ptr %7, align 4, !tbaa !3
  store ptr %2, ptr %8, align 8, !tbaa !34
  store ptr %3, ptr %9, align 8, !tbaa !34
  call void @llvm.lifetime.start.p0(i64 8, ptr %10) #7
  call void @llvm.lifetime.start.p0(i64 4, ptr %11) #7
  call void @llvm.lifetime.start.p0(i64 4, ptr %12) #7
  %14 = load ptr, ptr %6, align 8, !tbaa !49
  %15 = icmp eq ptr %14, null
  br i1 %15, label %25, label %16

16:                                               ; preds = %4
  %17 = load i32, ptr %7, align 4, !tbaa !3
  %18 = icmp slt i32 %17, 0
  br i1 %18, label %25, label %19

19:                                               ; preds = %16
  %20 = load ptr, ptr %8, align 8, !tbaa !34
  %21 = icmp eq ptr %20, null
  br i1 %21, label %25, label %22

22:                                               ; preds = %19
  %23 = load ptr, ptr %9, align 8, !tbaa !34
  %24 = icmp eq ptr %23, null
  br i1 %24, label %25, label %26

25:                                               ; preds = %22, %19, %16, %4
  store i8 0, ptr %5, align 1
  store i32 1, ptr %13, align 4
  br label %148

26:                                               ; preds = %22
  %27 = load ptr, ptr %6, align 8, !tbaa !49
  %28 = getelementptr inbounds nuw %struct.USerializedSet, ptr %27, i32 0, i32 0
  %29 = load ptr, ptr %28, align 8, !tbaa !56
  store ptr %29, ptr %10, align 8, !tbaa !47
  %30 = load ptr, ptr %6, align 8, !tbaa !49
  %31 = getelementptr inbounds nuw %struct.USerializedSet, ptr %30, i32 0, i32 2
  %32 = load i32, ptr %31, align 4, !tbaa !53
  store i32 %32, ptr %12, align 4, !tbaa !3
  %33 = load ptr, ptr %6, align 8, !tbaa !49
  %34 = getelementptr inbounds nuw %struct.USerializedSet, ptr %33, i32 0, i32 1
  %35 = load i32, ptr %34, align 8, !tbaa !51
  store i32 %35, ptr %11, align 4, !tbaa !3
  %36 = load i32, ptr %7, align 4, !tbaa !3
  %37 = mul nsw i32 %36, 2
  store i32 %37, ptr %7, align 4, !tbaa !3
  %38 = load i32, ptr %7, align 4, !tbaa !3
  %39 = load i32, ptr %11, align 4, !tbaa !3
  %40 = icmp slt i32 %38, %39
  br i1 %40, label %41, label %88

41:                                               ; preds = %26
  %42 = load ptr, ptr %10, align 8, !tbaa !47
  %43 = load i32, ptr %7, align 4, !tbaa !3
  %44 = add nsw i32 %43, 1
  store i32 %44, ptr %7, align 4, !tbaa !3
  %45 = sext i32 %43 to i64
  %46 = getelementptr inbounds i16, ptr %42, i64 %45
  %47 = load i16, ptr %46, align 2, !tbaa !54
  %48 = zext i16 %47 to i32
  %49 = load ptr, ptr %8, align 8, !tbaa !34
  store i32 %48, ptr %49, align 4, !tbaa !3
  %50 = load i32, ptr %7, align 4, !tbaa !3
  %51 = load i32, ptr %11, align 4, !tbaa !3
  %52 = icmp slt i32 %50, %51
  br i1 %52, label %53, label %62

53:                                               ; preds = %41
  %54 = load ptr, ptr %10, align 8, !tbaa !47
  %55 = load i32, ptr %7, align 4, !tbaa !3
  %56 = sext i32 %55 to i64
  %57 = getelementptr inbounds i16, ptr %54, i64 %56
  %58 = load i16, ptr %57, align 2, !tbaa !54
  %59 = zext i16 %58 to i32
  %60 = sub nsw i32 %59, 1
  %61 = load ptr, ptr %9, align 8, !tbaa !34
  store i32 %60, ptr %61, align 4, !tbaa !3
  br label %87

62:                                               ; preds = %41
  %63 = load i32, ptr %7, align 4, !tbaa !3
  %64 = load i32, ptr %12, align 4, !tbaa !3
  %65 = icmp slt i32 %63, %64
  br i1 %65, label %66, label %84

66:                                               ; preds = %62
  %67 = load ptr, ptr %10, align 8, !tbaa !47
  %68 = load i32, ptr %7, align 4, !tbaa !3
  %69 = sext i32 %68 to i64
  %70 = getelementptr inbounds i16, ptr %67, i64 %69
  %71 = load i16, ptr %70, align 2, !tbaa !54
  %72 = zext i16 %71 to i32
  %73 = shl i32 %72, 16
  %74 = load ptr, ptr %10, align 8, !tbaa !47
  %75 = load i32, ptr %7, align 4, !tbaa !3
  %76 = add nsw i32 %75, 1
  %77 = sext i32 %76 to i64
  %78 = getelementptr inbounds i16, ptr %74, i64 %77
  %79 = load i16, ptr %78, align 2, !tbaa !54
  %80 = zext i16 %79 to i32
  %81 = or i32 %73, %80
  %82 = sub nsw i32 %81, 1
  %83 = load ptr, ptr %9, align 8, !tbaa !34
  store i32 %82, ptr %83, align 4, !tbaa !3
  br label %86

84:                                               ; preds = %62
  %85 = load ptr, ptr %9, align 8, !tbaa !34
  store i32 1114111, ptr %85, align 4, !tbaa !3
  br label %86

86:                                               ; preds = %84, %66
  br label %87

87:                                               ; preds = %86, %53
  store i8 1, ptr %5, align 1
  store i32 1, ptr %13, align 4
  br label %148

88:                                               ; preds = %26
  %89 = load i32, ptr %11, align 4, !tbaa !3
  %90 = load i32, ptr %7, align 4, !tbaa !3
  %91 = sub nsw i32 %90, %89
  store i32 %91, ptr %7, align 4, !tbaa !3
  %92 = load i32, ptr %7, align 4, !tbaa !3
  %93 = mul nsw i32 %92, 2
  store i32 %93, ptr %7, align 4, !tbaa !3
  %94 = load i32, ptr %11, align 4, !tbaa !3
  %95 = load i32, ptr %12, align 4, !tbaa !3
  %96 = sub nsw i32 %95, %94
  store i32 %96, ptr %12, align 4, !tbaa !3
  %97 = load i32, ptr %7, align 4, !tbaa !3
  %98 = load i32, ptr %12, align 4, !tbaa !3
  %99 = icmp slt i32 %97, %98
  br i1 %99, label %100, label %147

100:                                              ; preds = %88
  %101 = load i32, ptr %11, align 4, !tbaa !3
  %102 = load ptr, ptr %10, align 8, !tbaa !47
  %103 = sext i32 %101 to i64
  %104 = getelementptr inbounds i16, ptr %102, i64 %103
  store ptr %104, ptr %10, align 8, !tbaa !47
  %105 = load ptr, ptr %10, align 8, !tbaa !47
  %106 = load i32, ptr %7, align 4, !tbaa !3
  %107 = sext i32 %106 to i64
  %108 = getelementptr inbounds i16, ptr %105, i64 %107
  %109 = load i16, ptr %108, align 2, !tbaa !54
  %110 = zext i16 %109 to i32
  %111 = shl i32 %110, 16
  %112 = load ptr, ptr %10, align 8, !tbaa !47
  %113 = load i32, ptr %7, align 4, !tbaa !3
  %114 = add nsw i32 %113, 1
  %115 = sext i32 %114 to i64
  %116 = getelementptr inbounds i16, ptr %112, i64 %115
  %117 = load i16, ptr %116, align 2, !tbaa !54
  %118 = zext i16 %117 to i32
  %119 = or i32 %111, %118
  %120 = load ptr, ptr %8, align 8, !tbaa !34
  store i32 %119, ptr %120, align 4, !tbaa !3
  %121 = load i32, ptr %7, align 4, !tbaa !3
  %122 = add nsw i32 %121, 2
  store i32 %122, ptr %7, align 4, !tbaa !3
  %123 = load i32, ptr %7, align 4, !tbaa !3
  %124 = load i32, ptr %12, align 4, !tbaa !3
  %125 = icmp slt i32 %123, %124
  br i1 %125, label %126, label %144

126:                                              ; preds = %100
  %127 = load ptr, ptr %10, align 8, !tbaa !47
  %128 = load i32, ptr %7, align 4, !tbaa !3
  %129 = sext i32 %128 to i64
  %130 = getelementptr inbounds i16, ptr %127, i64 %129
  %131 = load i16, ptr %130, align 2, !tbaa !54
  %132 = zext i16 %131 to i32
  %133 = shl i32 %132, 16
  %134 = load ptr, ptr %10, align 8, !tbaa !47
  %135 = load i32, ptr %7, align 4, !tbaa !3
  %136 = add nsw i32 %135, 1
  %137 = sext i32 %136 to i64
  %138 = getelementptr inbounds i16, ptr %134, i64 %137
  %139 = load i16, ptr %138, align 2, !tbaa !54
  %140 = zext i16 %139 to i32
  %141 = or i32 %133, %140
  %142 = sub nsw i32 %141, 1
  %143 = load ptr, ptr %9, align 8, !tbaa !34
  store i32 %142, ptr %143, align 4, !tbaa !3
  br label %146

144:                                              ; preds = %100
  %145 = load ptr, ptr %9, align 8, !tbaa !34
  store i32 1114111, ptr %145, align 4, !tbaa !3
  br label %146

146:                                              ; preds = %144, %126
  store i8 1, ptr %5, align 1
  store i32 1, ptr %13, align 4
  br label %148

147:                                              ; preds = %88
  store i8 0, ptr %5, align 1
  store i32 1, ptr %13, align 4
  br label %148

148:                                              ; preds = %147, %146, %87, %25
  call void @llvm.lifetime.end.p0(i64 4, ptr %12) #7
  call void @llvm.lifetime.end.p0(i64 4, ptr %11) #7
  call void @llvm.lifetime.end.p0(i64 8, ptr %10) #7
  %149 = load i8, ptr %5, align 1
  ret i8 %149
}