; Function Attrs: mustprogress nofree norecurse nosync nounwind willreturn memory(read, argmem: readwrite, inaccessiblemem: none) uwtable
define signext range(i8 0, 2) i8 @uset_getSerializedRange_77(ptr noundef readonly %0, i32 noundef %1, ptr noundef writeonly %2, ptr noundef writeonly %3) local_unnamed_addr #9 {
  %5 = icmp eq ptr %0, null
  %6 = icmp slt i32 %1, 0
  %or.cond = or i1 %5, %6
  %7 = icmp eq ptr %2, null
  %or.cond3 = or i1 %or.cond, %7
  %8 = icmp eq ptr %3, null
  %or.cond5 = or i1 %or.cond3, %8
  br i1 %or.cond5, label %75, label %9

9:                                                ; preds = %4
  %10 = load ptr, ptr %0, align 8, !tbaa !34
  %11 = getelementptr inbounds nuw i8, ptr %0, i64 12
  %12 = load i32, ptr %11, align 4, !tbaa !35
  %13 = getelementptr inbounds nuw i8, ptr %0, i64 8
  %14 = load i32, ptr %13, align 8, !tbaa !29
  %15 = shl nuw nsw i32 %1, 1
  %16 = icmp slt i32 %15, %14
  br i1 %16, label %17, label %43

17:                                               ; preds = %9
  %18 = or disjoint i32 %15, 1
  %19 = zext nneg i32 %15 to i64
  %20 = getelementptr inbounds nuw i16, ptr %10, i64 %19
  %21 = load i16, ptr %20, align 2, !tbaa !32
  %22 = zext i16 %21 to i32
  store i32 %22, ptr %2, align 4, !tbaa !21
  %23 = icmp samesign ult i32 %18, %14
  br i1 %23, label %24, label %30

24:                                               ; preds = %17
  %25 = zext nneg i32 %18 to i64
  %26 = getelementptr inbounds nuw i16, ptr %10, i64 %25
  %27 = load i16, ptr %26, align 2, !tbaa !32
  %28 = zext i16 %27 to i32
  %29 = add nsw i32 %28, -1
  br label %.sink.split

30:                                               ; preds = %17
  %31 = icmp slt i32 %18, %12
  br i1 %31, label %32, label %.sink.split

32:                                               ; preds = %30
  %33 = zext nneg i32 %18 to i64
  %34 = getelementptr inbounds nuw i16, ptr %10, i64 %33
  %35 = load i16, ptr %34, align 2, !tbaa !32
  %36 = zext i16 %35 to i32
  %37 = shl nuw i32 %36, 16
  %38 = getelementptr inbounds nuw i8, ptr %20, i64 4
  %39 = load i16, ptr %38, align 2, !tbaa !32
  %40 = zext i16 %39 to i32
  %41 = or disjoint i32 %37, %40
  %42 = add nsw i32 %41, -1
  br label %.sink.split

43:                                               ; preds = %9
  %44 = sub nsw i32 %15, %14
  %45 = shl nsw i32 %44, 1
  %46 = sub nsw i32 %12, %14
  %47 = icmp slt i32 %45, %46
  br i1 %47, label %48, label %75

48:                                               ; preds = %43
  %49 = sext i32 %14 to i64
  %50 = getelementptr inbounds i16, ptr %10, i64 %49
  %51 = sext i32 %45 to i64
  %52 = getelementptr inbounds i16, ptr %50, i64 %51
  %53 = load i16, ptr %52, align 2, !tbaa !32
  %54 = zext i16 %53 to i32
  %55 = shl nuw i32 %54, 16
  %56 = or disjoint i32 %45, 1
  %57 = sext i32 %56 to i64
  %58 = getelementptr inbounds i16, ptr %50, i64 %57
  %59 = load i16, ptr %58, align 2, !tbaa !32
  %60 = zext i16 %59 to i32
  %61 = or disjoint i32 %55, %60
  store i32 %61, ptr %2, align 4, !tbaa !21
  %62 = add nsw i32 %45, 2
  %63 = icmp slt i32 %62, %46
  br i1 %63, label %64, label %.sink.split

64:                                               ; preds = %48
  %65 = sext i32 %62 to i64
  %66 = getelementptr inbounds i16, ptr %50, i64 %65
  %67 = load i16, ptr %66, align 2, !tbaa !32
  %68 = zext i16 %67 to i32
  %69 = shl nuw i32 %68, 16
  %70 = getelementptr i8, ptr %52, i64 6
  %71 = load i16, ptr %70, align 2, !tbaa !32
  %72 = zext i16 %71 to i32
  %73 = or disjoint i32 %69, %72
  %74 = add nsw i32 %73, -1
  br label %.sink.split

.sink.split:                                      ; preds = %64, %48, %30, %32, %24
  %.sink = phi i32 [ %29, %24 ], [ %42, %32 ], [ 1114111, %30 ], [ %74, %64 ], [ 1114111, %48 ]
  store i32 %.sink, ptr %3, align 4, !tbaa !21
  br label %75

75:                                               ; preds = %.sink.split, %43, %4
  %.0 = phi i8 [ 0, %4 ], [ 0, %43 ], [ 1, %.sink.split ]
  ret i8 %.0
}